target datalayout = "e-m:e-p270:32:32-p271:32:32-p272:64:64-i64:64-i128:128-f80:128-n8:16:32:64-S128"
target triple = "x86_64-pc-linux-gnu"

%struct.wtap_block = type { ptr, ptr, ptr, i32 }
%struct.wtap_blocktype_t = type { i32, ptr, ptr, ptr, ptr, ptr, ptr }

@blocktype_list = internal global [12 x ptr] zeroinitializer, align 16

; Function Attrs: null_pointer_is_valid sspstrong uwtable
define ptr @wtap_block_create(i32 noundef %0) #0 {
  %2 = alloca ptr, align 8
  %3 = alloca i32, align 4
  %4 = alloca ptr, align 8
  %5 = alloca i32, align 4
  %6 = alloca i64, align 8
  %7 = alloca i64, align 8
  %8 = alloca ptr, align 8
  %9 = alloca ptr, align 8
  store i32 %0, ptr %3, align 4
  call void @llvm.lifetime.start.p0(i64 8, ptr %4) #15
  %10 = load i32, ptr %3, align 4
  %11 = icmp uge i32 %10, 12
  br i1 %11, label %12, label %13

12:                                               ; preds = %1
  store ptr null, ptr %2, align 8
  store i32 1, ptr %5, align 4
  br label %61

13:                                               ; preds = %1
  call void @llvm.lifetime.start.p0(i64 8, ptr %6) #15
  store i64 1, ptr %6, align 8
  call void @llvm.lifetime.start.p0(i64 8, ptr %7) #15
  store i64 32, ptr %7, align 8
  call void @llvm.lifetime.start.p0(i64 8, ptr %8) #15
  %14 = load i64, ptr %7, align 8
  %15 = icmp eq i64 %14, 1
  br i1 %15, label %16, label %19

16:                                               ; preds = %13
  %17 = load i64, ptr %6, align 8
  %18 = call noalias ptr @g_malloc(i64 noundef %17) #16
  store ptr %18, ptr %8, align 8
  br label %40

19:                                               ; preds = %13
  %20 = load i64, ptr %6, align 8
  %21 = call i1 @llvm.is.constant.i64(i64 %20)
  br i1 %21, label %22, label %35

22:                                               ; preds = %19
  %23 = load i64, ptr %7, align 8
  %24 = icmp eq i64 %23, 0
  br i1 %24, label %30, label %25

25:                                               ; preds = %22
  %26 = load i64, ptr %6, align 8
  %27 = load i64, ptr %7, align 8
  %28 = udiv i64 -1, %27
  %29 = icmp ule i64 %26, %28
  br i1 %29, label %30, label %35

30:                                               ; preds = %25, %22
  %31 = load i64, ptr %6, align 8
  %32 = load i64, ptr %7, align 8
  %33 = mul i64 %31, %32
  %34 = call noalias ptr @g_malloc(i64 noundef %33) #16
  store ptr %34, ptr %8, align 8
  br label %39

35:                                               ; preds = %25, %19
  %36 = load i64, ptr %6, align 8
  %37 = load i64, ptr %7, align 8
  %38 = call noalias ptr @g_malloc_n(i64 noundef %36, i64 noundef %37) #17
  store ptr %38, ptr %8, align 8
  br label %39

39:                                               ; preds = %35, %30
  br label %40

40:                                               ; preds = %39, %16
  %41 = load ptr, ptr %8, align 8
  store ptr %41, ptr %9, align 8
  call void @llvm.lifetime.end.p0(i64 8, ptr %8) #15
  call void @llvm.lifetime.end.p0(i64 8, ptr %7) #15
  call void @llvm.lifetime.end.p0(i64 8, ptr %6) #15
  %42 = load ptr, ptr %9, align 8
  store ptr %42, ptr %4, align 8
  %43 = load i32, ptr %3, align 4
  %44 = zext i32 %43 to i64
  %45 = getelementptr [12 x ptr], ptr @blocktype_list, i64 0, i64 %44
  %46 = load ptr, ptr %45, align 8
  %47 = load ptr, ptr %4, align 8
  %48 = getelementptr inbounds nuw %struct.wtap_block, ptr %47, i32 0, i32 0
  store ptr %46, ptr %48, align 8
  %49 = call ptr @g_array_new(i32 noundef 0, i32 noundef 0, i32 noundef 48)
  %50 = load ptr, ptr %4, align 8
  %51 = getelementptr inbounds nuw %struct.wtap_block, ptr %50, i32 0, i32 2
  store ptr %49, ptr %51, align 8
  %52 = load ptr, ptr %4, align 8
  %53 = getelementptr inbounds nuw %struct.wtap_block, ptr %52, i32 0, i32 0
  %54 = load ptr, ptr %53, align 8
  %55 = getelementptr inbounds nuw %struct.wtap_blocktype_t, ptr %54, i32 0, i32 3
  %56 = load ptr, ptr %55, align 8
  %57 = load ptr, ptr %4, align 8
  call void %56(ptr noundef %57)
  %58 = load ptr, ptr %4, align 8
  %59 = getelementptr inbounds nuw %struct.wtap_block, ptr %58, i32 0, i32 3
  store i32 1, ptr %59, align 8
  %60 = load ptr, ptr %4, align 8
  store ptr %60, ptr %2, align 8
  store i32 1, ptr %5, align 4
  br label %61

61:                                               ; preds = %40, %12
  call void @llvm.lifetime.end.p0(i64 8, ptr %4) #15
  %62 = load ptr, ptr %2, align 8
  ret ptr %62
}