; Function Attrs: null_pointer_is_valid sspstrong uwtable
define noundef ptr @wtap_block_create(i32 noundef %0) local_unnamed_addr #0 {
  %2 = icmp ugt i32 %0, 11
  br i1 %2, label %13, label %3

3:                                                ; preds = %1
  %4 = tail call noalias dereferenceable_or_null(32) ptr @g_malloc(i64 noundef 32) #16
  %5 = zext nneg i32 %0 to i64
  %6 = getelementptr [12 x ptr], ptr @blocktype_list, i64 0, i64 %5
  %7 = load ptr, ptr %6, align 8
  store ptr %7, ptr %4, align 8
  %8 = tail call ptr @g_array_new(i32 noundef 0, i32 noundef 0, i32 noundef 48)
  %9 = getelementptr inbounds nuw i8, ptr %4, i64 16
  store ptr %8, ptr %9, align 8
  %10 = getelementptr inbounds nuw i8, ptr %7, i64 24
  %11 = load ptr, ptr %10, align 8
  tail call void %11(ptr noundef %4)
  %12 = getelementptr inbounds nuw i8, ptr %4, i64 24
  store i32 1, ptr %12, align 8
  br label %13

13:                                               ; preds = %1, %3
  %.0 = phi ptr [ %4, %3 ], [ null, %1 ]
  ret ptr %.0
}